target datalayout = "e-m:e-p270:32:32-p271:32:32-p272:64:64-i64:64-i128:128-f80:128-n8:16:32:64-S128"
target triple = "x86_64-pc-linux-gnu"

; Function Attrs: inlinehint nounwind uwtable
define internal i32 @CompareWords(i64 noundef %0, i64 noundef %1) #5 {
  %3 = alloca i32, align 4
  %4 = alloca i64, align 8
  %5 = alloca i64, align 8
  store i64 %0, ptr %4, align 8, !tbaa !18
  store i64 %1, ptr %5, align 8, !tbaa !18
  %6 = load i64, ptr %4, align 8, !tbaa !18
  %7 = load i64, ptr %5, align 8, !tbaa !18
  %8 = icmp ugt i64 %6, %7
  br i1 %8, label %9, label %10

9:                                                ; preds = %2
  store i32 1, ptr %3, align 4
  br label %16

10:                                               ; preds = %2
  %11 = load i64, ptr %4, align 8, !tbaa !18
  %12 = load i64, ptr %5, align 8, !tbaa !18
  %13 = icmp ult i64 %11, %12
  br i1 %13, label %14, label %15

14:                                               ; preds = %10
  store i32 -1, ptr %3, align 4
  br label %16

15:                                               ; preds = %10
  store i32 0, ptr %3, align 4
  br label %16

16:                                               ; preds = %15, %14, %9
  %17 = load i32, ptr %3, align 4
  ret i32 %17
}

; Function Attrs: nounwind uwtable
define i32 @minTemp1_fast_iVar5(ptr noundef %0, i32 noundef %1, ptr noundef %2) #0 {
  %4 = alloca i32, align 4
  %5 = alloca ptr, align 8
  %6 = alloca i32, align 4
  %7 = alloca ptr, align 8
  %8 = alloca i32, align 4
  %9 = alloca i32, align 4
  %10 = alloca i32, align 4
  store ptr %0, ptr %5, align 8, !tbaa !12
  store i32 %1, ptr %6, align 4, !tbaa !8
  store ptr %2, ptr %7, align 8, !tbaa !12
  call void @llvm.lifetime.start.p0(i64 4, ptr %8) #7
  call void @llvm.lifetime.start.p0(i64 4, ptr %9) #7
  %11 = load i32, ptr %6, align 4, !tbaa !8
  %12 = mul nsw i32 %11, 2
  %13 = sub nsw i32 %12, 2
  store i32 %13, ptr %8, align 4, !tbaa !8
  br label %14

14:                                               ; preds = %46, %3
  %15 = load i32, ptr %8, align 4, !tbaa !8
  %16 = icmp sge i32 %15, 0
  br i1 %16, label %17, label %49

17:                                               ; preds = %14
  %18 = load ptr, ptr %5, align 8, !tbaa !12
  %19 = load i32, ptr %8, align 4, !tbaa !8
  %20 = sext i32 %19 to i64
  %21 = getelementptr inbounds i32, ptr %18, i64 %20
  %22 = load i32, ptr %21, align 4, !tbaa !8
  %23 = zext i32 %22 to i64
  %24 = load ptr, ptr %5, align 8, !tbaa !12
  %25 = load i32, ptr %8, align 4, !tbaa !8
  %26 = sub nsw i32 %25, 1
  %27 = sext i32 %26 to i64
  %28 = getelementptr inbounds i32, ptr %24, i64 %27
  %29 = load i32, ptr %28, align 4, !tbaa !8
  %30 = zext i32 %29 to i64
  %31 = call i32 @CompareWords(i64 noundef %23, i64 noundef %30)
  store i32 %31, ptr %9, align 4, !tbaa !8
  %32 = load i32, ptr %9, align 4, !tbaa !8
  %33 = icmp eq i32 %32, 0
  br i1 %33, label %34, label %35

34:                                               ; preds = %17
  br label %46

35:                                               ; preds = %17
  %36 = load i32, ptr %9, align 4, !tbaa !8
  %37 = icmp eq i32 %36, -1
  br i1 %37, label %38, label %42

38:                                               ; preds = %35
  %39 = load i32, ptr %8, align 4, !tbaa !8
  %40 = add nsw i32 %39, 2
  %41 = load ptr, ptr %7, align 8, !tbaa !12
  store i32 %40, ptr %41, align 4, !tbaa !8
  store i32 1, ptr %4, align 4
  store i32 1, ptr %10, align 4
  br label %51

42:                                               ; preds = %35
  %43 = load i32, ptr %8, align 4, !tbaa !8
  %44 = add nsw i32 %43, 2
  %45 = load ptr, ptr %7, align 8, !tbaa !12
  store i32 %44, ptr %45, align 4, !tbaa !8
  store i32 2, ptr %4, align 4
  store i32 1, ptr %10, align 4
  br label %51

46:                                               ; preds = %34
  %47 = load i32, ptr %8, align 4, !tbaa !8
  %48 = sub nsw i32 %47, 4
  store i32 %48, ptr %8, align 4, !tbaa !8
  br label %14, !llvm.loop !27

49:                                               ; preds = %14
  %50 = load ptr, ptr %7, align 8, !tbaa !12
  store i32 0, ptr %50, align 4, !tbaa !8
  store i32 1, ptr %4, align 4
  store i32 1, ptr %10, align 4
  br label %51

51:                                               ; preds = %49, %42, %38
  call void @llvm.lifetime.end.p0(i64 4, ptr %9) #7
  call void @llvm.lifetime.end.p0(i64 4, ptr %8) #7
  %52 = load i32, ptr %4, align 4
  ret i32 %52
}